target datalayout = "e-m:e-p270:32:32-p271:32:32-p272:64:64-i64:64-i128:128-f80:128-n8:16:32:64-S128"
target triple = "x86_64-pc-linux-gnu"

%struct.H5VL_class_t = type { i32, i32, ptr, i32, i64, ptr, ptr, %struct.H5VL_info_class_t, %struct.H5VL_wrap_class_t, %struct.H5VL_attr_class_t, %struct.H5VL_dataset_class_t, %struct.H5VL_datatype_class_t, %struct.H5VL_file_class_t, %struct.H5VL_group_class_t, %struct.H5VL_link_class_t, %struct.H5VL_object_class_t, %struct.H5VL_introspect_class_t, %struct.H5VL_request_class_t, %struct.H5VL_blob_class_t, %struct.H5VL_token_class_t, ptr }
%struct.H5VL_info_class_t = type { i64, ptr, ptr, ptr, ptr, ptr }
%struct.H5VL_wrap_class_t = type { ptr, ptr, ptr, ptr, ptr }
%struct.H5VL_attr_class_t = type { ptr, ptr, ptr, ptr, ptr, ptr, ptr, ptr }
%struct.H5VL_dataset_class_t = type { ptr, ptr, ptr, ptr, ptr, ptr, ptr, ptr }
%struct.H5VL_datatype_class_t = type { ptr, ptr, ptr, ptr, ptr, ptr }
%struct.H5VL_file_class_t = type { ptr, ptr, ptr, ptr, ptr, ptr }
%struct.H5VL_group_class_t = type { ptr, ptr, ptr, ptr, ptr, ptr }
%struct.H5VL_link_class_t = type { ptr, ptr, ptr, ptr, ptr, ptr }
%struct.H5VL_object_class_t = type { ptr, ptr, ptr, ptr, ptr }
%struct.H5VL_introspect_class_t = type { ptr, ptr, ptr }
%struct.H5VL_request_class_t = type { ptr, ptr, ptr, ptr, ptr, ptr }
%struct.H5VL_blob_class_t = type { ptr, ptr, ptr, ptr }
%struct.H5VL_token_class_t = type { ptr, ptr, ptr }
%struct.H5VL_object_t = type { ptr, ptr, i64 }
%struct.H5VL_t = type { ptr, i64, i64 }

@.str.2 = private unnamed_addr constant [101 x i8] c"generated/home/dtcxzyw/WorkSpace/Projects/compilers/llvm-opt-benchmark/bench/hdf5/hdf5/src/H5VLint.c\00", align 1
@H5E_VOL_g = external global i64, align 8
@H5E_BADTYPE_g = external global i64, align 8
@__func__.H5VL__get_connector_name = private unnamed_addr constant [25 x i8] c"H5VL__get_connector_name\00", align 1
@.str.72 = private unnamed_addr constant [23 x i8] c"invalid VOL identifier\00", align 1

; Function Attrs: nounwind uwtable
define i64 @H5VL__get_connector_name(i64 noundef %0, ptr noundef %1, i64 noundef %2) #0 {
  %4 = alloca i64, align 8
  %5 = alloca ptr, align 8
  %6 = alloca i64, align 8
  %7 = alloca ptr, align 8
  %8 = alloca ptr, align 8
  %9 = alloca i64, align 8
  %10 = alloca i64, align 8
  %11 = alloca i8, align 1
  store i64 %0, ptr %4, align 8
  store ptr %1, ptr %5, align 8
  store i64 %2, ptr %6, align 8
  store i64 -1, ptr %10, align 8
  store i8 0, ptr %11, align 1
  %12 = load i64, ptr %4, align 8
  %13 = call ptr @H5VL_vol_object(i64 noundef %12)
  store ptr %13, ptr %7, align 8
  %14 = icmp eq ptr null, %13
  br i1 %14, label %15, label %30

15:                                               ; preds = %3
  br label %16

16:                                               ; preds = %15
  br label %17

17:                                               ; preds = %16
  br label %18

18:                                               ; preds = %17
  %19 = load i64, ptr @H5E_VOL_g, align 8
  %20 = load i64, ptr @H5E_BADTYPE_g, align 8
  %21 = call i32 (ptr, ptr, i32, i64, i64, ptr, ...) @H5E_printf_stack(ptr noundef @.str.2, ptr noundef @__func__.H5VL__get_connector_name, i32 noundef 1688, i64 noundef %19, i64 noundef %20, ptr noundef @.str.72)
  br label %22

22:                                               ; preds = %18
  store i8 1, ptr %11, align 1
  %23 = load i8, ptr %11, align 1
  %24 = trunc i8 %23 to i1
  %25 = zext i1 %24 to i8
  store i8 %25, ptr %11, align 1
  br label %26

26:                                               ; preds = %22
  br label %27

27:                                               ; preds = %26
  store i64 -1, ptr %10, align 8
  br label %60

28:                                               ; No predecessors!
  br label %29

29:                                               ; preds = %28
  br label %30

30:                                               ; preds = %29, %3
  %31 = load ptr, ptr %7, align 8
  %32 = getelementptr inbounds %struct.H5VL_object_t, ptr %31, i32 0, i32 1
  %33 = load ptr, ptr %32, align 8
  %34 = getelementptr inbounds %struct.H5VL_t, ptr %33, i32 0, i32 0
  %35 = load ptr, ptr %34, align 8
  store ptr %35, ptr %8, align 8
  %36 = load ptr, ptr %8, align 8
  %37 = getelementptr inbounds %struct.H5VL_class_t, ptr %36, i32 0, i32 2
  %38 = load ptr, ptr %37, align 8
  %39 = call i64 @strlen(ptr noundef %38) #6
  store i64 %39, ptr %9, align 8
  %40 = load ptr, ptr %5, align 8
  %41 = icmp ne ptr %40, null
  br i1 %41, label %42, label %58

42:                                               ; preds = %30
  %43 = load ptr, ptr %5, align 8
  %44 = load ptr, ptr %8, align 8
  %45 = getelementptr inbounds %struct.H5VL_class_t, ptr %44, i32 0, i32 2
  %46 = load ptr, ptr %45, align 8
  %47 = load i64, ptr %6, align 8
  %48 = call ptr @strncpy(ptr noundef %43, ptr noundef %46, i64 noundef %47) #5
  %49 = load i64, ptr %9, align 8
  %50 = load i64, ptr %6, align 8
  %51 = icmp uge i64 %49, %50
  br i1 %51, label %52, label %57

52:                                               ; preds = %42
  %53 = load ptr, ptr %5, align 8
  %54 = load i64, ptr %6, align 8
  %55 = sub i64 %54, 1
  %56 = getelementptr inbounds i8, ptr %53, i64 %55
  store i8 0, ptr %56, align 1
  br label %57

57:                                               ; preds = %52, %42
  br label %58

58:                                               ; preds = %57, %30
  %59 = load i64, ptr %9, align 8
  store i64 %59, ptr %10, align 8
  br label %60

60:                                               ; preds = %58, %27
  %61 = load i64, ptr %10, align 8
  ret i64 %61
}