; Function Attrs: nounwind uwtable
define i64 @H5VL__get_connector_name(i64 noundef %0, ptr noundef %1, i64 noundef %2) local_unnamed_addr #0 {
  %4 = tail call ptr @H5VL_vol_object(i64 noundef %0)
  %5 = icmp eq ptr %4, null
  br i1 %5, label %6, label %10

6:                                                ; preds = %3
  %7 = load i64, ptr @H5E_VOL_g, align 8
  %8 = load i64, ptr @H5E_BADTYPE_g, align 8
  %9 = tail call i32 (ptr, ptr, i32, i64, i64, ptr, ...) @H5E_printf_stack(ptr noundef nonnull @.str.2, ptr noundef nonnull @__func__.H5VL__get_connector_name, i32 noundef 1688, i64 noundef %7, i64 noundef %8, ptr noundef nonnull @.str.72) #10
  br label %22

10:                                               ; preds = %3
  %11 = getelementptr inbounds i8, ptr %4, i64 8
  %12 = load ptr, ptr %11, align 8
  %13 = load ptr, ptr %12, align 8
  %14 = getelementptr inbounds i8, ptr %13, i64 8
  %15 = load ptr, ptr %14, align 8
  %16 = tail call i64 @strlen(ptr noundef nonnull dereferenceable(1) %15) #11
  %.not = icmp eq ptr %1, null
  br i1 %.not, label %22, label %17

17:                                               ; preds = %10
  %18 = tail call ptr @strncpy(ptr noundef nonnull %1, ptr noundef %15, i64 noundef %2) #10
  %.not16 = icmp ult i64 %16, %2
  br i1 %.not16, label %22, label %19

19:                                               ; preds = %17
  %20 = getelementptr i8, ptr %1, i64 %2
  %21 = getelementptr i8, ptr %20, i64 -1
  store i8 0, ptr %21, align 1
  br label %22

22:                                               ; preds = %10, %19, %17, %6
  %.0 = phi i64 [ -1, %6 ], [ %16, %17 ], [ %16, %19 ], [ %16, %10 ]
  ret i64 %.0
}